target datalayout = "e-m:e-p270:32:32-p271:32:32-p272:64:64-i64:64-i128:128-f80:128-n8:16:32:64-S128"
target triple = "x86_64-pc-linux-gnu"

%struct.rb_data_type_struct = type { ptr, %struct.anon.14, ptr, ptr, i64 }
%struct.anon.14 = type { ptr, ptr, ptr, ptr, [1 x ptr] }
%struct.RTypedData = type { %struct.RBasic, ptr, i64, ptr }
%struct.RBasic = type { i64, i64 }
%struct.RData = type { %struct.RBasic, ptr, ptr, ptr }
%struct.rb_proc_t = type { %struct.rb_block, i8 }
%struct.rb_block = type { %union.anon.12, i32 }
%union.anon.12 = type { %struct.rb_captured_block }
%struct.rb_captured_block = type { i64, ptr, %union.anon.13 }
%union.anon.13 = type { ptr }
%struct.RArray = type { %struct.RBasic, %union.anon.26 }
%union.anon.26 = type { %struct.anon.27 }
%struct.anon.27 = type { i64, %union.anon.28, ptr }
%union.anon.28 = type { i64 }

@proc_data_type = internal constant %struct.rb_data_type_struct { ptr @.str.44, %struct.anon.14 { ptr @proc_mark_and_move, ptr inttoptr (i64 -1 to ptr), ptr @proc_memsize, ptr @proc_mark_and_move, [1 x ptr] zeroinitializer }, ptr null, ptr null, i64 33 }, align 8
@rb_cProc = dso_local global i64 0, align 8
@rb_sym_to_proc.sym_proc_cache = internal global i64 0, align 8
@.str.69 = private unnamed_addr constant [10 x i8] c"../proc.c\00", align 1
@.str.74 = private unnamed_addr constant [39 x i8] c"../include/ruby/internal/core/rarray.h\00", align 1

; Function Attrs: inlinehint nounwind sspstrong willreturn memory(none) uwtable
define internal zeroext i1 @RB_IMMEDIATE_P(i64 noundef %0) #12 {
  %2 = alloca i64, align 8
  store i64 %0, ptr %2, align 8, !tbaa !7
  %3 = load i64, ptr %2, align 8, !tbaa !7
  %4 = and i64 %3, 7
  %5 = icmp ne i64 %4, 0
  ret i1 %5
}

; Function Attrs: inlinehint nounwind sspstrong willreturn memory(none) uwtable
define internal zeroext i1 @RB_SPECIAL_CONST_P(i64 noundef %0) #12 {
  %2 = alloca i64, align 8
  store i64 %0, ptr %2, align 8, !tbaa !7
  %3 = load i64, ptr %2, align 8, !tbaa !7
  %4 = icmp eq i64 %3, 0
  br i1 %4, label %8, label %5

5:                                                ; preds = %1
  %6 = load i64, ptr %2, align 8, !tbaa !7
  %7 = call zeroext i1 @RB_IMMEDIATE_P(i64 noundef %6) #29
  br label %8

8:                                                ; preds = %5, %1
  %9 = phi i1 [ true, %1 ], [ %7, %5 ]
  ret i1 %9
}

; Function Attrs: inlinehint nounwind sspstrong uwtable
define internal zeroext i1 @RTYPEDDATA_EMBEDDED_P(i64 noundef %0) #3 {
  %2 = alloca i64, align 8
  store i64 %0, ptr %2, align 8, !tbaa !7
  %3 = load i64, ptr %2, align 8, !tbaa !7
  %4 = inttoptr i64 %3 to ptr
  %5 = getelementptr inbounds nuw %struct.RTypedData, ptr %4, i32 0, i32 2
  %6 = load i64, ptr %5, align 8, !tbaa !141
  %7 = and i64 %6, 2
  %8 = icmp ne i64 %7, 0
  ret i1 %8
}

; Function Attrs: inlinehint nounwind sspstrong willreturn memory(read) uwtable
define internal i64 @RB_FL_TEST_RAW(i64 noundef %0, i64 noundef %1) #7 {
  %3 = alloca i64, align 8
  %4 = alloca i64, align 8
  store i64 %0, ptr %3, align 8, !tbaa !7
  store i64 %1, ptr %4, align 8, !tbaa !7
  %5 = load i64, ptr %3, align 8, !tbaa !7
  %6 = inttoptr i64 %5 to ptr
  %7 = getelementptr inbounds nuw %struct.RBasic, ptr %6, i32 0, i32 0
  %8 = load i64, ptr %7, align 8, !tbaa !89
  %9 = load i64, ptr %4, align 8, !tbaa !7
  %10 = and i64 %8, %9
  ret i64 %10
}

; Function Attrs: inlinehint nounwind sspstrong uwtable
define internal i64 @rb_obj_written(i64 noundef %0, i64 noundef %1, i64 noundef %2, ptr noundef %3, i32 noundef %4) #3 {
  %6 = alloca i64, align 8
  %7 = alloca i64, align 8
  %8 = alloca i64, align 8
  %9 = alloca ptr, align 8
  %10 = alloca i32, align 4
  store i64 %0, ptr %6, align 8, !tbaa !7
  store i64 %1, ptr %7, align 8, !tbaa !7
  store i64 %2, ptr %8, align 8, !tbaa !7
  store ptr %3, ptr %9, align 8, !tbaa !73
  store i32 %4, ptr %10, align 4, !tbaa !36
  %11 = load i64, ptr %8, align 8, !tbaa !7
  %12 = call zeroext i1 @RB_SPECIAL_CONST_P(i64 noundef %11) #29
  br i1 %12, label %16, label %13

13:                                               ; preds = %5
  %14 = load i64, ptr %6, align 8, !tbaa !7
  %15 = load i64, ptr %8, align 8, !tbaa !7
  call void @rb_gc_writebarrier(i64 noundef %14, i64 noundef %15)
  br label %16

16:                                               ; preds = %13, %5
  %17 = load i64, ptr %6, align 8, !tbaa !7
  ret i64 %17
}

; Function Attrs: inlinehint nounwind sspstrong uwtable
define internal ptr @RTYPEDDATA_GET_DATA(i64 noundef %0) #3 {
  %2 = alloca i64, align 8
  %3 = alloca i64, align 8
  store i64 %0, ptr %2, align 8, !tbaa !7
  call void @llvm.lifetime.start.p0(i64 8, ptr %3) #25
  store i64 32, ptr %3, align 8, !tbaa !7
  %4 = load i64, ptr %2, align 8, !tbaa !7
  %5 = call zeroext i1 @RTYPEDDATA_EMBEDDED_P(i64 noundef %4)
  br i1 %5, label %6, label %10

6:                                                ; preds = %1
  %7 = load i64, ptr %2, align 8, !tbaa !7
  %8 = inttoptr i64 %7 to ptr
  %9 = getelementptr i8, ptr %8, i64 32
  br label %15

10:                                               ; preds = %1
  %11 = load i64, ptr %2, align 8, !tbaa !7
  %12 = inttoptr i64 %11 to ptr
  %13 = getelementptr inbounds nuw %struct.RTypedData, ptr %12, i32 0, i32 3
  %14 = load ptr, ptr %13, align 8, !tbaa !13
  br label %15

15:                                               ; preds = %10, %6
  %16 = phi ptr [ %9, %6 ], [ %14, %10 ]
  call void @llvm.lifetime.end.p0(i64 8, ptr %3) #25
  ret ptr %16
}

; Function Attrs: inlinehint nounwind sspstrong willreturn memory(read) uwtable
define internal zeroext i1 @RB_FL_ANY_RAW(i64 noundef %0, i64 noundef %1) #7 {
  %3 = alloca i64, align 8
  %4 = alloca i64, align 8
  store i64 %0, ptr %3, align 8, !tbaa !7
  store i64 %1, ptr %4, align 8, !tbaa !7
  %5 = load i64, ptr %3, align 8, !tbaa !7
  %6 = load i64, ptr %4, align 8, !tbaa !7
  %7 = call i64 @RB_FL_TEST_RAW(i64 noundef %5, i64 noundef %6) #28
  %8 = icmp ne i64 %7, 0
  ret i1 %8
}

; Function Attrs: inlinehint nounwind sspstrong uwtable
define internal i64 @rb_obj_write(i64 noundef %0, ptr noundef %1, i64 noundef %2, ptr noundef %3, i32 noundef %4) #3 {
  %6 = alloca i64, align 8
  %7 = alloca ptr, align 8
  %8 = alloca i64, align 8
  %9 = alloca ptr, align 8
  %10 = alloca i32, align 4
  store i64 %0, ptr %6, align 8, !tbaa !7
  store ptr %1, ptr %7, align 8, !tbaa !35
  store i64 %2, ptr %8, align 8, !tbaa !7
  store ptr %3, ptr %9, align 8, !tbaa !73
  store i32 %4, ptr %10, align 4, !tbaa !36
  %11 = load i64, ptr %8, align 8, !tbaa !7
  %12 = load ptr, ptr %7, align 8, !tbaa !35
  store i64 %11, ptr %12, align 8, !tbaa !7
  %13 = load i64, ptr %6, align 8, !tbaa !7
  %14 = load i64, ptr %8, align 8, !tbaa !7
  %15 = load ptr, ptr %9, align 8, !tbaa !73
  %16 = load i32, ptr %10, align 4, !tbaa !36
  %17 = call i64 @rb_obj_written(i64 noundef %13, i64 noundef 36, i64 noundef %14, ptr noundef %15, i32 noundef %16)
  %18 = load i64, ptr %6, align 8, !tbaa !7
  ret i64 %18
}

; Function Attrs: inlinehint nounwind sspstrong uwtable
define internal void @vm_block_type_set(ptr noundef %0, i32 noundef %1) #3 {
  %3 = alloca ptr, align 8
  %4 = alloca i32, align 4
  %5 = alloca ptr, align 8
  store ptr %0, ptr %3, align 8, !tbaa !48
  store i32 %1, ptr %4, align 4, !tbaa !36
  call void @llvm.lifetime.start.p0(i64 8, ptr %5) #25
  %6 = load ptr, ptr %3, align 8, !tbaa !48
  store ptr %6, ptr %5, align 8, !tbaa !48
  %7 = load i32, ptr %4, align 4, !tbaa !36
  %8 = load ptr, ptr %5, align 8, !tbaa !48
  %9 = getelementptr inbounds nuw %struct.rb_block, ptr %8, i32 0, i32 1
  store i32 %7, ptr %9, align 8, !tbaa !55
  call void @llvm.lifetime.end.p0(i64 8, ptr %5) #25
  ret void
}

; Function Attrs: nounwind sspstrong uwtable
define hidden i64 @rb_proc_alloc(i64 noundef %0) #0 {
  %2 = alloca i64, align 8
  %3 = alloca ptr, align 8
  %4 = alloca i64, align 8
  %5 = alloca i64, align 8
  store i64 %0, ptr %2, align 8, !tbaa !7
  call void @llvm.lifetime.start.p0(i64 8, ptr %3) #25
  call void @llvm.lifetime.start.p0(i64 8, ptr %4) #25
  %6 = load i64, ptr %2, align 8, !tbaa !7
  %7 = call i64 @rb_data_typed_object_zalloc(i64 noundef %6, i64 noundef 40, ptr noundef @proc_data_type)
  store i64 %7, ptr %4, align 8, !tbaa !7
  %8 = load i64, ptr %4, align 8, !tbaa !7
  %9 = call ptr @RTYPEDDATA_GET_DATA(i64 noundef %8)
  store ptr %9, ptr %3, align 8, !tbaa !11
  %10 = load i64, ptr %4, align 8, !tbaa !7
  store i64 %10, ptr %5, align 8, !tbaa !7
  call void @llvm.lifetime.end.p0(i64 8, ptr %4) #25
  %11 = load i64, ptr %5, align 8, !tbaa !7
  call void @llvm.lifetime.end.p0(i64 8, ptr %3) #25
  ret i64 %11
}

; Function Attrs: inlinehint nounwind sspstrong willreturn memory(read) uwtable
define internal ptr @rb_array_const_ptr(i64 noundef %0) #7 {
  %2 = alloca ptr, align 8
  %3 = alloca i64, align 8
  store i64 %0, ptr %3, align 8, !tbaa !7
  %4 = load i64, ptr %3, align 8, !tbaa !7
  %5 = call zeroext i1 @RB_FL_ANY_RAW(i64 noundef %4, i64 noundef 8192) #28
  br i1 %5, label %6, label %11

6:                                                ; preds = %1
  %7 = load i64, ptr %3, align 8, !tbaa !7
  %8 = inttoptr i64 %7 to ptr
  %9 = getelementptr inbounds nuw %struct.RArray, ptr %8, i32 0, i32 1
  %10 = getelementptr inbounds [1 x i64], ptr %9, i64 0, i64 0
  store ptr %10, ptr %2, align 8
  br label %17

11:                                               ; preds = %1
  %12 = load i64, ptr %3, align 8, !tbaa !7
  %13 = inttoptr i64 %12 to ptr
  %14 = getelementptr inbounds nuw %struct.RArray, ptr %13, i32 0, i32 1
  %15 = getelementptr inbounds nuw %struct.anon.27, ptr %14, i32 0, i32 2
  %16 = load ptr, ptr %15, align 8, !tbaa !34
  store ptr %16, ptr %2, align 8
  br label %17

17:                                               ; preds = %11, %6
  %18 = load ptr, ptr %2, align 8
  ret ptr %18
}

; Function Attrs: inlinehint nounwind sspstrong uwtable
define internal void @RARRAY_ASET(i64 noundef %0, i64 noundef %1, i64 noundef %2) #3 {
  %4 = alloca i64, align 8
  %5 = alloca i64, align 8
  %6 = alloca i64, align 8
  %7 = alloca i64, align 8
  %8 = alloca ptr, align 8
  store i64 %0, ptr %4, align 8, !tbaa !7
  store i64 %1, ptr %5, align 8, !tbaa !7
  store i64 %2, ptr %6, align 8, !tbaa !7
  br label %9

9:                                                ; preds = %3
  call void @llvm.lifetime.start.p0(i64 8, ptr %7) #25
  %10 = load i64, ptr %4, align 8, !tbaa !7
  store i64 %10, ptr %7, align 8, !tbaa !7
  call void @llvm.lifetime.start.p0(i64 8, ptr %8) #25
  %11 = load i64, ptr %7, align 8, !tbaa !7
  %12 = call ptr @rb_ary_ptr_use_start(i64 noundef %11)
  store ptr %12, ptr %8, align 8, !tbaa !35
  %13 = load i64, ptr %4, align 8, !tbaa !7
  %14 = load ptr, ptr %8, align 8, !tbaa !35
  %15 = load i64, ptr %5, align 8, !tbaa !7
  %16 = getelementptr i64, ptr %14, i64 %15
  %17 = load i64, ptr %6, align 8, !tbaa !7
  %18 = call i64 @rb_obj_write(i64 noundef %13, ptr noundef %16, i64 noundef %17, ptr noundef @.str.74, i32 noundef 389)
  %19 = load i64, ptr %7, align 8, !tbaa !7
  call void @rb_ary_ptr_use_end(i64 noundef %19)
  call void @llvm.lifetime.end.p0(i64 8, ptr %8) #25
  call void @llvm.lifetime.end.p0(i64 8, ptr %7) #25
  br label %20

20:                                               ; preds = %9
  ret void
}

; Function Attrs: nounwind sspstrong uwtable
define internal i64 @sym_proc_new(i64 noundef %0, i64 noundef %1) #0 {
  %3 = alloca i64, align 8
  %4 = alloca i64, align 8
  %5 = alloca i64, align 8
  %6 = alloca ptr, align 8
  store i64 %0, ptr %3, align 8, !tbaa !7
  store i64 %1, ptr %4, align 8, !tbaa !7
  call void @llvm.lifetime.start.p0(i64 8, ptr %5) #25
  %7 = load i64, ptr %3, align 8, !tbaa !7
  %8 = call i64 @rb_proc_alloc(i64 noundef %7)
  store i64 %8, ptr %5, align 8, !tbaa !7
  call void @llvm.lifetime.start.p0(i64 8, ptr %6) #25
  %9 = load i64, ptr %5, align 8, !tbaa !7
  %10 = inttoptr i64 %9 to ptr
  %11 = getelementptr inbounds nuw %struct.RData, ptr %10, i32 0, i32 3
  %12 = load ptr, ptr %11, align 8, !tbaa !17
  store ptr %12, ptr %6, align 8, !tbaa !11
  %13 = load ptr, ptr %6, align 8, !tbaa !11
  %14 = getelementptr inbounds nuw %struct.rb_proc_t, ptr %13, i32 0, i32 0
  call void @vm_block_type_set(ptr noundef %14, i32 noundef 2)
  %15 = load ptr, ptr %6, align 8, !tbaa !11
  %16 = getelementptr inbounds nuw %struct.rb_proc_t, ptr %15, i32 0, i32 1
  %17 = load i8, ptr %16, align 8
  %18 = and i8 %17, -3
  %19 = or i8 %18, 2
  store i8 %19, ptr %16, align 8
  %20 = load i64, ptr %5, align 8, !tbaa !7
  %21 = load ptr, ptr %6, align 8, !tbaa !11
  %22 = getelementptr inbounds nuw %struct.rb_proc_t, ptr %21, i32 0, i32 0
  %23 = getelementptr inbounds nuw %struct.rb_block, ptr %22, i32 0, i32 0
  %24 = load i64, ptr %4, align 8, !tbaa !7
  %25 = call i64 @rb_obj_write(i64 noundef %20, ptr noundef %23, i64 noundef %24, ptr noundef @.str.69, i32 noundef 717)
  %26 = load i64, ptr %5, align 8, !tbaa !7
  call void @llvm.lifetime.end.p0(i64 8, ptr %6) #25
  call void @llvm.lifetime.end.p0(i64 8, ptr %5) #25
  ret i64 %26
}

; Function Attrs: inlinehint nounwind sspstrong willreturn memory(read) uwtable
define internal i64 @RARRAY_AREF(i64 noundef %0, i64 noundef %1) #7 {
  %3 = alloca i64, align 8
  %4 = alloca i64, align 8
  %5 = alloca i64, align 8
  store i64 %0, ptr %3, align 8, !tbaa !7
  store i64 %1, ptr %4, align 8, !tbaa !7
  call void @llvm.lifetime.start.p0(i64 8, ptr %5) #25
  %6 = load i64, ptr %3, align 8, !tbaa !7
  %7 = call ptr @rb_array_const_ptr(i64 noundef %6) #28
  %8 = load i64, ptr %4, align 8, !tbaa !7
  %9 = getelementptr i64, ptr %7, i64 %8
  %10 = load i64, ptr %9, align 8, !tbaa !7
  store i64 %10, ptr %5, align 8, !tbaa !7
  %11 = load i64, ptr %5, align 8, !tbaa !7
  call void @llvm.lifetime.end.p0(i64 8, ptr %5) #25
  ret i64 %11
}

; Function Attrs: nounwind sspstrong uwtable
define hidden i64 @rb_sym_to_proc(i64 noundef %0) #0 {
  %2 = alloca i64, align 8
  %3 = alloca i64, align 8
  %4 = alloca i64, align 8
  %5 = alloca i64, align 8
  %6 = alloca i64, align 8
  %7 = alloca i32, align 4
  store i64 %0, ptr %3, align 8, !tbaa !7
  call void @llvm.lifetime.start.p0(i64 8, ptr %4) #25
  call void @llvm.lifetime.start.p0(i64 8, ptr %5) #25
  call void @llvm.lifetime.start.p0(i64 8, ptr %6) #25
  %8 = load i64, ptr @rb_sym_to_proc.sym_proc_cache, align 8, !tbaa !7
  %9 = icmp ne i64 %8, 0
  br i1 %9, label %14, label %10

10:                                               ; preds = %1
  %11 = call i64 @rb_ary_hidden_new(i64 noundef 134)
  store i64 %11, ptr @rb_sym_to_proc.sym_proc_cache, align 8, !tbaa !7
  %12 = load i64, ptr @rb_sym_to_proc.sym_proc_cache, align 8, !tbaa !7
  call void @rb_vm_register_global_object(i64 noundef %12)
  %13 = load i64, ptr @rb_sym_to_proc.sym_proc_cache, align 8, !tbaa !7
  call void @rb_ary_store(i64 noundef %13, i64 noundef 133, i64 noundef 4)
  br label %14

14:                                               ; preds = %10, %1
  %15 = load i64, ptr %3, align 8, !tbaa !7
  %16 = call i64 @rb_sym2id(i64 noundef %15)
  store i64 %16, ptr %6, align 8, !tbaa !7
  %17 = load i64, ptr %6, align 8, !tbaa !7
  %18 = urem i64 %17, 67
  %19 = shl i64 %18, 1
  store i64 %19, ptr %5, align 8, !tbaa !7
  %20 = load i64, ptr @rb_sym_to_proc.sym_proc_cache, align 8, !tbaa !7
  %21 = load i64, ptr %5, align 8, !tbaa !7
  %22 = call i64 @RARRAY_AREF(i64 noundef %20, i64 noundef %21) #28
  %23 = load i64, ptr %3, align 8, !tbaa !7
  %24 = icmp eq i64 %22, %23
  br i1 %24, label %25, label %30

25:                                               ; preds = %14
  %26 = load i64, ptr @rb_sym_to_proc.sym_proc_cache, align 8, !tbaa !7
  %27 = load i64, ptr %5, align 8, !tbaa !7
  %28 = add i64 %27, 1
  %29 = call i64 @RARRAY_AREF(i64 noundef %26, i64 noundef %28) #28
  store i64 %29, ptr %2, align 8
  store i32 1, ptr %7, align 4
  br label %43

30:                                               ; preds = %14
  %31 = load i64, ptr @rb_cProc, align 8, !tbaa !7
  %32 = load i64, ptr %6, align 8, !tbaa !7
  %33 = call i64 @rb_id2sym(i64 noundef %32)
  %34 = call i64 @sym_proc_new(i64 noundef %31, i64 noundef %33)
  store i64 %34, ptr %4, align 8, !tbaa !7
  %35 = load i64, ptr @rb_sym_to_proc.sym_proc_cache, align 8, !tbaa !7
  %36 = load i64, ptr %5, align 8, !tbaa !7
  %37 = load i64, ptr %3, align 8, !tbaa !7
  call void @RARRAY_ASET(i64 noundef %35, i64 noundef %36, i64 noundef %37)
  %38 = load i64, ptr @rb_sym_to_proc.sym_proc_cache, align 8, !tbaa !7
  %39 = load i64, ptr %5, align 8, !tbaa !7
  %40 = add i64 %39, 1
  %41 = load i64, ptr %4, align 8, !tbaa !7
  call void @RARRAY_ASET(i64 noundef %38, i64 noundef %40, i64 noundef %41)
  %42 = load i64, ptr %4, align 8, !tbaa !7
  store i64 %42, ptr %2, align 8
  store i32 1, ptr %7, align 4
  br label %43

43:                                               ; preds = %30, %25
  call void @llvm.lifetime.end.p0(i64 8, ptr %6) #25
  call void @llvm.lifetime.end.p0(i64 8, ptr %5) #25
  call void @llvm.lifetime.end.p0(i64 8, ptr %4) #25
  %44 = load i64, ptr %2, align 8
  ret i64 %44
}