; Function Attrs: nounwind sspstrong uwtable
define hidden i64 @rb_sym_to_proc(i64 noundef %0) local_unnamed_addr #0 {
  %2 = load i64, ptr @rb_sym_to_proc.sym_proc_cache, align 8, !tbaa !36
  %.not = icmp eq i64 %2, 0
  br i1 %.not, label %3, label %6

3:                                                ; preds = %1
  %4 = tail call i64 @rb_ary_hidden_new(i64 noundef 134) #21
  store i64 %4, ptr @rb_sym_to_proc.sym_proc_cache, align 8, !tbaa !36
  tail call void @rb_vm_register_global_object(i64 noundef %4) #21
  %5 = load i64, ptr @rb_sym_to_proc.sym_proc_cache, align 8, !tbaa !36
  tail call void @rb_ary_store(i64 noundef %5, i64 noundef 133, i64 noundef 4) #21
  br label %6

6:                                                ; preds = %3, %1
  %7 = tail call i64 @rb_sym2id(i64 noundef %0) #21
  %8 = urem i64 %7, 67
  %9 = shl nuw nsw i64 %8, 1
  %10 = load i64, ptr @rb_sym_to_proc.sym_proc_cache, align 8, !tbaa !36
  %11 = inttoptr i64 %10 to ptr
  %12 = load i64, ptr %11, align 8, !tbaa !42
  %13 = and i64 %12, 8192
  %.not.i.i = icmp eq i64 %13, 0
  br i1 %.not.i.i, label %RARRAY_AREF.exit, label %RARRAY_AREF.exit.thread

RARRAY_AREF.exit:                                 ; preds = %6
  %14 = getelementptr inbounds nuw i8, ptr %11, i64 32
  %15 = load ptr, ptr %14, align 8, !tbaa !35
  %16 = getelementptr i64, ptr %15, i64 %9
  %17 = load i64, ptr %16, align 8, !tbaa !36
  %18 = icmp eq i64 %17, %0
  br i1 %18, label %RARRAY_AREF.exit15, label %26

RARRAY_AREF.exit.thread:                          ; preds = %6
  %19 = getelementptr inbounds nuw i8, ptr %11, i64 16
  %20 = getelementptr i64, ptr %19, i64 %9
  %21 = load i64, ptr %20, align 8, !tbaa !36
  %22 = icmp eq i64 %21, %0
  br i1 %22, label %RARRAY_AREF.exit15, label %26

RARRAY_AREF.exit15:                               ; preds = %RARRAY_AREF.exit, %RARRAY_AREF.exit.thread
  %.0.i.i14 = phi ptr [ %19, %RARRAY_AREF.exit.thread ], [ %15, %RARRAY_AREF.exit ]
  %23 = or disjoint i64 %9, 1
  %24 = getelementptr i64, ptr %.0.i.i14, i64 %23
  %25 = load i64, ptr %24, align 8, !tbaa !36
  br label %59

26:                                               ; preds = %RARRAY_AREF.exit.thread, %RARRAY_AREF.exit
  %27 = load i64, ptr @rb_cProc, align 8, !tbaa !36
  %28 = tail call i64 @rb_id2sym(i64 noundef %7) #21
  %29 = tail call i64 @rb_data_typed_object_zalloc(i64 noundef %27, i64 noundef 40, ptr noundef nonnull @proc_data_type) #21
  %30 = inttoptr i64 %29 to ptr
  %31 = getelementptr inbounds nuw i8, ptr %30, i64 32
  %32 = load ptr, ptr %31, align 8, !tbaa !7
  %33 = getelementptr inbounds nuw i8, ptr %32, i64 24
  store i32 2, ptr %33, align 8, !tbaa !14
  %34 = getelementptr inbounds nuw i8, ptr %32, i64 32
  %35 = load i8, ptr %34, align 8
  %36 = or i8 %35, 2
  store i8 %36, ptr %34, align 8
  store i64 %28, ptr %32, align 8, !tbaa !36
  %37 = icmp eq i64 %28, 0
  %38 = and i64 %28, 7
  %39 = icmp ne i64 %38, 0
  %40 = or i1 %37, %39
  br i1 %40, label %sym_proc_new.exit, label %41

41:                                               ; preds = %26
  tail call void @rb_gc_writebarrier(i64 noundef %29, i64 noundef %28) #21
  br label %sym_proc_new.exit

sym_proc_new.exit:                                ; preds = %26, %41
  %42 = load i64, ptr @rb_sym_to_proc.sym_proc_cache, align 8, !tbaa !36
  %43 = tail call ptr @rb_ary_ptr_use_start(i64 noundef %42) #21
  %44 = getelementptr i64, ptr %43, i64 %9
  store i64 %0, ptr %44, align 8, !tbaa !36
  %45 = icmp eq i64 %0, 0
  %46 = and i64 %0, 7
  %47 = icmp ne i64 %46, 0
  %48 = or i1 %45, %47
  br i1 %48, label %RARRAY_ASET.exit, label %49

49:                                               ; preds = %sym_proc_new.exit
  tail call void @rb_gc_writebarrier(i64 noundef %42, i64 noundef %0) #21
  br label %RARRAY_ASET.exit

RARRAY_ASET.exit:                                 ; preds = %sym_proc_new.exit, %49
  tail call void @rb_ary_ptr_use_end(i64 noundef %42) #21
  %50 = load i64, ptr @rb_sym_to_proc.sym_proc_cache, align 8, !tbaa !36
  %51 = or disjoint i64 %9, 1
  %52 = tail call ptr @rb_ary_ptr_use_start(i64 noundef %50) #21
  %53 = getelementptr i64, ptr %52, i64 %51
  store i64 %29, ptr %53, align 8, !tbaa !36
  %54 = icmp eq i64 %29, 0
  %55 = and i64 %29, 7
  %56 = icmp ne i64 %55, 0
  %57 = or i1 %54, %56
  br i1 %57, label %RARRAY_ASET.exit16, label %58

58:                                               ; preds = %RARRAY_ASET.exit
  tail call void @rb_gc_writebarrier(i64 noundef %50, i64 noundef %29) #21
  br label %RARRAY_ASET.exit16

RARRAY_ASET.exit16:                               ; preds = %RARRAY_ASET.exit, %58
  tail call void @rb_ary_ptr_use_end(i64 noundef %50) #21
  br label %59

59:                                               ; preds = %RARRAY_ASET.exit16, %RARRAY_AREF.exit15
  %.0 = phi i64 [ %25, %RARRAY_AREF.exit15 ], [ %29, %RARRAY_ASET.exit16 ]
  ret i64 %.0
}